; ModuleID = '27/214.c'
source_filename = "27/214.c"
target datalayout = "e-m:e-p270:32:32-p271:32:32-p272:64:64-i64:64-f80:128-n8:16:32:64-S128"
target triple = "x86_64-pc-linux-gnu"

@.str = private unnamed_addr constant [4 x i8] c"%d\0A\00", align 1
@.str.1 = private unnamed_addr constant [13 x i8] c"%lf %lf %lf\0A\00", align 1
@.str.2 = private unnamed_addr constant [19 x i8] c"x1=%.5lf;x2=%.5lf\0A\00", align 1
@.str.3 = private unnamed_addr constant [13 x i8] c"x1=x2=%.5lf\0A\00", align 1
@.str.4 = private unnamed_addr constant [33 x i8] c"x1=%.5lf+%.5lfi;x2=%.5lf-%.5lfi\0A\00", align 1

; Function Attrs: noinline nounwind uwtable
define dso_local i32 @main() #0 {
  %1 = alloca i32, align 4
  %2 = alloca i32, align 4
  %3 = alloca i32, align 4
  %4 = alloca i32, align 4
  %5 = alloca i32, align 4
  %6 = alloca [100 x double], align 16
  %7 = alloca [100 x double], align 16
  %8 = alloca [100 x double], align 16
  %9 = alloca [100 x double], align 16
  %10 = alloca [100 x double], align 16
  %11 = alloca [100 x double], align 16
  store i32 0, i32* %1, align 4
  %12 = call i32 (i8*, ...) @__isoc99_scanf(i8* getelementptr inbounds ([4 x i8], [4 x i8]* @.str, i64 0, i64 0), i32* %5)
  store i32 1, i32* %2, align 4
  br label %13

13:                                               ; preds = %51, %0
  %14 = load i32, i32* %2, align 4
  %15 = load i32, i32* %5, align 4
  %16 = icmp sle i32 %14, %15
  br i1 %16, label %17, label %54

17:                                               ; preds = %13
  %18 = load i32, i32* %2, align 4
  %19 = sext i32 %18 to i64
  %20 = getelementptr inbounds [100 x double], [100 x double]* %8, i64 0, i64 %19
  %21 = load i32, i32* %2, align 4
  %22 = sext i32 %21 to i64
  %23 = getelementptr inbounds [100 x double], [100 x double]* %9, i64 0, i64 %22
  %24 = load i32, i32* %2, align 4
  %25 = sext i32 %24 to i64
  %26 = getelementptr inbounds [100 x double], [100 x double]* %10, i64 0, i64 %25
  %27 = call i32 (i8*, ...) @__isoc99_scanf(i8* getelementptr inbounds ([13 x i8], [13 x i8]* @.str.1, i64 0, i64 0), double* %20, double* %23, double* %26)
  %28 = load i32, i32* %2, align 4
  %29 = sext i32 %28 to i64
  %30 = getelementptr inbounds [100 x double], [100 x double]* %9, i64 0, i64 %29
  %31 = load double, double* %30, align 8
  %32 = load i32, i32* %2, align 4
  %33 = sext i32 %32 to i64
  %34 = getelementptr inbounds [100 x double], [100 x double]* %9, i64 0, i64 %33
  %35 = load double, double* %34, align 8
  %36 = fmul double %31, %35
  %37 = load i32, i32* %2, align 4
  %38 = sext i32 %37 to i64
  %39 = getelementptr inbounds [100 x double], [100 x double]* %8, i64 0, i64 %38
  %40 = load double, double* %39, align 8
  %41 = fmul double 4.000000e+00, %40
  %42 = load i32, i32* %2, align 4
  %43 = sext i32 %42 to i64
  %44 = getelementptr inbounds [100 x double], [100 x double]* %10, i64 0, i64 %43
  %45 = load double, double* %44, align 8
  %46 = fmul double %41, %45
  %47 = fsub double %36, %46
  %48 = load i32, i32* %2, align 4
  %49 = sext i32 %48 to i64
  %50 = getelementptr inbounds [100 x double], [100 x double]* %11, i64 0, i64 %49
  store double %47, double* %50, align 8
  br label %51

51:                                               ; preds = %17
  %52 = load i32, i32* %2, align 4
  %53 = add nsw i32 %52, 1
  store i32 %53, i32* %2, align 4
  br label %13

54:                                               ; preds = %13
  store i32 1, i32* %2, align 4
  br label %55

55:                                               ; preds = %257, %54
  %56 = load i32, i32* %2, align 4
  %57 = load i32, i32* %5, align 4
  %58 = icmp sle i32 %56, %57
  br i1 %58, label %59, label %260

59:                                               ; preds = %55
  %60 = load i32, i32* %2, align 4
  %61 = sext i32 %60 to i64
  %62 = getelementptr inbounds [100 x double], [100 x double]* %11, i64 0, i64 %61
  %63 = load double, double* %62, align 8
  %64 = fcmp ogt double %63, 0.000000e+00
  br i1 %64, label %65, label %115

65:                                               ; preds = %59
  %66 = load i32, i32* %2, align 4
  %67 = sext i32 %66 to i64
  %68 = getelementptr inbounds [100 x double], [100 x double]* %9, i64 0, i64 %67
  %69 = load double, double* %68, align 8
  %70 = fneg double %69
  %71 = load i32, i32* %2, align 4
  %72 = sext i32 %71 to i64
  %73 = getelementptr inbounds [100 x double], [100 x double]* %11, i64 0, i64 %72
  %74 = load double, double* %73, align 8
  %75 = call double @sqrt(double %74) #3
  %76 = fadd double %70, %75
  %77 = load i32, i32* %2, align 4
  %78 = sext i32 %77 to i64
  %79 = getelementptr inbounds [100 x double], [100 x double]* %8, i64 0, i64 %78
  %80 = load double, double* %79, align 8
  %81 = fmul double 2.000000e+00, %80
  %82 = fdiv double %76, %81
  %83 = load i32, i32* %2, align 4
  %84 = sext i32 %83 to i64
  %85 = getelementptr inbounds [100 x double], [100 x double]* %6, i64 0, i64 %84
  store double %82, double* %85, align 8
  %86 = load i32, i32* %2, align 4
  %87 = sext i32 %86 to i64
  %88 = getelementptr inbounds [100 x double], [100 x double]* %9, i64 0, i64 %87
  %89 = load double, double* %88, align 8
  %90 = fneg double %89
  %91 = load i32, i32* %2, align 4
  %92 = sext i32 %91 to i64
  %93 = getelementptr inbounds [100 x double], [100 x double]* %11, i64 0, i64 %92
  %94 = load double, double* %93, align 8
  %95 = call double @sqrt(double %94) #3
  %96 = fsub double %90, %95
  %97 = load i32, i32* %2, align 4
  %98 = sext i32 %97 to i64
  %99 = getelementptr inbounds [100 x double], [100 x double]* %8, i64 0, i64 %98
  %100 = load double, double* %99, align 8
  %101 = fmul double 2.000000e+00, %100
  %102 = fdiv double %96, %101
  %103 = load i32, i32* %2, align 4
  %104 = sext i32 %103 to i64
  %105 = getelementptr inbounds [100 x double], [100 x double]* %7, i64 0, i64 %104
  store double %102, double* %105, align 8
  %106 = load i32, i32* %2, align 4
  %107 = sext i32 %106 to i64
  %108 = getelementptr inbounds [100 x double], [100 x double]* %6, i64 0, i64 %107
  %109 = load double, double* %108, align 8
  %110 = load i32, i32* %2, align 4
  %111 = sext i32 %110 to i64
  %112 = getelementptr inbounds [100 x double], [100 x double]* %7, i64 0, i64 %111
  %113 = load double, double* %112, align 8
  %114 = call i32 (i8*, ...) @printf(i8* getelementptr inbounds ([19 x i8], [19 x i8]* @.str.2, i64 0, i64 0), double %109, double %113)
  br label %115

115:                                              ; preds = %65, %59
  %116 = load i32, i32* %2, align 4
  %117 = sext i32 %116 to i64
  %118 = getelementptr inbounds [100 x double], [100 x double]* %11, i64 0, i64 %117
  %119 = load double, double* %118, align 8
  %120 = fcmp oeq double %119, 0.000000e+00
  br i1 %120, label %121, label %150

121:                                              ; preds = %115
  %122 = load i32, i32* %2, align 4
  %123 = sext i32 %122 to i64
  %124 = getelementptr inbounds [100 x double], [100 x double]* %9, i64 0, i64 %123
  %125 = load double, double* %124, align 8
  %126 = fneg double %125
  %127 = load i32, i32* %2, align 4
  %128 = sext i32 %127 to i64
  %129 = getelementptr inbounds [100 x double], [100 x double]* %11, i64 0, i64 %128
  %130 = load double, double* %129, align 8
  %131 = call double @sqrt(double %130) #3
  %132 = fadd double %126, %131
  %133 = load i32, i32* %2, align 4
  %134 = sext i32 %133 to i64
  %135 = getelementptr inbounds [100 x double], [100 x double]* %8, i64 0, i64 %134
  %136 = load double, double* %135, align 8
  %137 = fmul double 2.000000e+00, %136
  %138 = fdiv double %132, %137
  %139 = load i32, i32* %2, align 4
  %140 = sext i32 %139 to i64
  %141 = getelementptr inbounds [100 x double], [100 x double]* %7, i64 0, i64 %140
  store double %138, double* %141, align 8
  %142 = load i32, i32* %2, align 4
  %143 = sext i32 %142 to i64
  %144 = getelementptr inbounds [100 x double], [100 x double]* %6, i64 0, i64 %143
  store double %138, double* %144, align 8
  %145 = load i32, i32* %2, align 4
  %146 = sext i32 %145 to i64
  %147 = getelementptr inbounds [100 x double], [100 x double]* %6, i64 0, i64 %146
  %148 = load double, double* %147, align 8
  %149 = call i32 (i8*, ...) @printf(i8* getelementptr inbounds ([13 x i8], [13 x i8]* @.str.3, i64 0, i64 0), double %148)
  br label %150

150:                                              ; preds = %121, %115
  %151 = load i32, i32* %2, align 4
  %152 = sext i32 %151 to i64
  %153 = getelementptr inbounds [100 x double], [100 x double]* %11, i64 0, i64 %152
  %154 = load double, double* %153, align 8
  %155 = fcmp olt double %154, 0.000000e+00
  br i1 %155, label %156, label %256

156:                                              ; preds = %150
  %157 = load i32, i32* %2, align 4
  %158 = sext i32 %157 to i64
  %159 = getelementptr inbounds [100 x double], [100 x double]* %9, i64 0, i64 %158
  %160 = load double, double* %159, align 8
  %161 = fcmp oeq double %160, 0.000000e+00
  br i1 %161, label %162, label %208

162:                                              ; preds = %156
  %163 = load i32, i32* %2, align 4
  %164 = sext i32 %163 to i64
  %165 = getelementptr inbounds [100 x double], [100 x double]* %9, i64 0, i64 %164
  %166 = load double, double* %165, align 8
  %167 = load i32, i32* %2, align 4
  %168 = sext i32 %167 to i64
  %169 = getelementptr inbounds [100 x double], [100 x double]* %8, i64 0, i64 %168
  %170 = load double, double* %169, align 8
  %171 = fmul double 2.000000e+00, %170
  %172 = fdiv double %166, %171
  %173 = load i32, i32* %2, align 4
  %174 = sext i32 %173 to i64
  %175 = getelementptr inbounds [100 x double], [100 x double]* %6, i64 0, i64 %174
  store double %172, double* %175, align 8
  %176 = load i32, i32* %2, align 4
  %177 = sext i32 %176 to i64
  %178 = getelementptr inbounds [100 x double], [100 x double]* %11, i64 0, i64 %177
  %179 = load double, double* %178, align 8
  %180 = fneg double %179
  %181 = call double @sqrt(double %180) #3
  %182 = load i32, i32* %2, align 4
  %183 = sext i32 %182 to i64
  %184 = getelementptr inbounds [100 x double], [100 x double]* %8, i64 0, i64 %183
  %185 = load double, double* %184, align 8
  %186 = fmul double 2.000000e+00, %185
  %187 = fdiv double %181, %186
  %188 = load i32, i32* %2, align 4
  %189 = sext i32 %188 to i64
  %190 = getelementptr inbounds [100 x double], [100 x double]* %7, i64 0, i64 %189
  store double %187, double* %190, align 8
  %191 = load i32, i32* %2, align 4
  %192 = sext i32 %191 to i64
  %193 = getelementptr inbounds [100 x double], [100 x double]* %6, i64 0, i64 %192
  %194 = load double, double* %193, align 8
  %195 = load i32, i32* %2, align 4
  %196 = sext i32 %195 to i64
  %197 = getelementptr inbounds [100 x double], [100 x double]* %7, i64 0, i64 %196
  %198 = load double, double* %197, align 8
  %199 = load i32, i32* %2, align 4
  %200 = sext i32 %199 to i64
  %201 = getelementptr inbounds [100 x double], [100 x double]* %6, i64 0, i64 %200
  %202 = load double, double* %201, align 8
  %203 = load i32, i32* %2, align 4
  %204 = sext i32 %203 to i64
  %205 = getelementptr inbounds [100 x double], [100 x double]* %7, i64 0, i64 %204
  %206 = load double, double* %205, align 8
  %207 = call i32 (i8*, ...) @printf(i8* getelementptr inbounds ([33 x i8], [33 x i8]* @.str.4, i64 0, i64 0), double %194, double %198, double %202, double %206)
  br label %255

208:                                              ; preds = %156
  %209 = load i32, i32* %2, align 4
  %210 = sext i32 %209 to i64
  %211 = getelementptr inbounds [100 x double], [100 x double]* %9, i64 0, i64 %210
  %212 = load double, double* %211, align 8
  %213 = load i32, i32* %2, align 4
  %214 = sext i32 %213 to i64
  %215 = getelementptr inbounds [100 x double], [100 x double]* %8, i64 0, i64 %214
  %216 = load double, double* %215, align 8
  %217 = fmul double 2.000000e+00, %216
  %218 = fdiv double %212, %217
  %219 = fneg double %218
  %220 = load i32, i32* %2, align 4
  %221 = sext i32 %220 to i64
  %222 = getelementptr inbounds [100 x double], [100 x double]* %6, i64 0, i64 %221
  store double %219, double* %222, align 8
  %223 = load i32, i32* %2, align 4
  %224 = sext i32 %223 to i64
  %225 = getelementptr inbounds [100 x double], [100 x double]* %11, i64 0, i64 %224
  %226 = load double, double* %225, align 8
  %227 = fneg double %226
  %228 = call double @sqrt(double %227) #3
  %229 = load i32, i32* %2, align 4
  %230 = sext i32 %229 to i64
  %231 = getelementptr inbounds [100 x double], [100 x double]* %8, i64 0, i64 %230
  %232 = load double, double* %231, align 8
  %233 = fmul double 2.000000e+00, %232
  %234 = fdiv double %228, %233
  %235 = load i32, i32* %2, align 4
  %236 = sext i32 %235 to i64
  %237 = getelementptr inbounds [100 x double], [100 x double]* %7, i64 0, i64 %236
  store double %234, double* %237, align 8
  %238 = load i32, i32* %2, align 4
  %239 = sext i32 %238 to i64
  %240 = getelementptr inbounds [100 x double], [100 x double]* %6, i64 0, i64 %239
  %241 = load double, double* %240, align 8
  %242 = load i32, i32* %2, align 4
  %243 = sext i32 %242 to i64
  %244 = getelementptr inbounds [100 x double], [100 x double]* %7, i64 0, i64 %243
  %245 = load double, double* %244, align 8
  %246 = load i32, i32* %2, align 4
  %247 = sext i32 %246 to i64
  %248 = getelementptr inbounds [100 x double], [100 x double]* %6, i64 0, i64 %247
  %249 = load double, double* %248, align 8
  %250 = load i32, i32* %2, align 4
  %251 = sext i32 %250 to i64
  %252 = getelementptr inbounds [100 x double], [100 x double]* %7, i64 0, i64 %251
  %253 = load double, double* %252, align 8
  %254 = call i32 (i8*, ...) @printf(i8* getelementptr inbounds ([33 x i8], [33 x i8]* @.str.4, i64 0, i64 0), double %241, double %245, double %249, double %253)
  br label %255

255:                                              ; preds = %208, %162
  br label %256

256:                                              ; preds = %255, %150
  br label %257

257:                                              ; preds = %256
  %258 = load i32, i32* %2, align 4
  %259 = add nsw i32 %258, 1
  store i32 %259, i32* %2, align 4
  br label %55

260:                                              ; preds = %55
  ret i32 0
}

declare dso_local i32 @__isoc99_scanf(i8*, ...) #1

; Function Attrs: nounwind
declare dso_local double @sqrt(double) #2

declare dso_local i32 @printf(i8*, ...) #1


!llvm.module.flags = !{!0}
!llvm.ident = !{!1}

!0 = !{i32 1, !"wchar_size", i32 4}
!1 = !{!"clang version 10.0.0-4ubuntu1 "}
